; Function Attrs: nounwind uwtable
define ptr @ASN1_STRING_dup(ptr noundef readonly captures(address_is_null) %0) local_unnamed_addr #1 {
  %.not = icmp eq ptr %0, null
  br i1 %.not, label %ASN1_STRING_free.exit, label %2

2:                                                ; preds = %1
  %3 = tail call noalias ptr @CRYPTO_zalloc(i64 noundef 24, ptr noundef nonnull @.str, i32 noundef 355) #13
  %4 = icmp eq ptr %3, null
  br i1 %4, label %ASN1_STRING_free.exit, label %5

5:                                                ; preds = %2
  %6 = getelementptr inbounds nuw i8, ptr %3, i64 4
  %7 = getelementptr inbounds nuw i8, ptr %0, i64 4
  %8 = load i32, ptr %7, align 4, !tbaa !24
  store i32 %8, ptr %6, align 4, !tbaa !24
  %9 = getelementptr inbounds nuw i8, ptr %0, i64 8
  %10 = load ptr, ptr %9, align 8, !tbaa !25
  %11 = load i32, ptr %0, align 8, !tbaa !26
  %12 = tail call i32 @ASN1_STRING_set(ptr noundef nonnull %3, ptr noundef %10, i32 noundef %11)
  %.not.i = icmp eq i32 %12, 0
  %13 = getelementptr inbounds nuw i8, ptr %3, i64 16
  %14 = load i64, ptr %13, align 8, !tbaa !22
  br i1 %.not.i, label %20, label %ASN1_STRING_copy.exit

ASN1_STRING_copy.exit:                            ; preds = %5
  %15 = and i64 %14, 128
  %16 = getelementptr inbounds nuw i8, ptr %0, i64 16
  %17 = load i64, ptr %16, align 8, !tbaa !22
  %18 = and i64 %17, -129
  %19 = or disjoint i64 %18, %15
  store i64 %19, ptr %13, align 8, !tbaa !22
  br label %ASN1_STRING_free.exit

20:                                               ; preds = %5
  %21 = and i64 %14, 16
  %.not.i.i = icmp eq i64 %21, 0
  br i1 %.not.i.i, label %22, label %25

22:                                               ; preds = %20
  %23 = getelementptr inbounds nuw i8, ptr %3, i64 8
  %24 = load ptr, ptr %23, align 8, !tbaa !25
  tail call void @CRYPTO_free(ptr noundef %24, ptr noundef nonnull @.str, i32 noundef 367) #13
  br label %25

25:                                               ; preds = %22, %20
  %26 = and i64 %14, 128
  %27 = icmp eq i64 %26, 0
  br i1 %27, label %28, label %ASN1_STRING_free.exit

28:                                               ; preds = %25
  tail call void @CRYPTO_free(ptr noundef nonnull %3, ptr noundef nonnull @.str, i32 noundef 369) #13
  br label %ASN1_STRING_free.exit

ASN1_STRING_free.exit:                            ; preds = %2, %28, %25, %ASN1_STRING_copy.exit, %1
  %.0 = phi ptr [ null, %1 ], [ %3, %ASN1_STRING_copy.exit ], [ null, %25 ], [ null, %28 ], [ null, %2 ]
  ret ptr %.0
}